target datalayout = "e-m:e-p270:32:32-p271:32:32-p272:64:64-i64:64-i128:128-f80:128-n8:16:32:64-S128"
target triple = "x86_64-pc-linux-gnu"

%struct._zend_executor_globals = type { %struct._zval_struct, %struct._zval_struct, [32 x ptr], ptr, ptr, %struct._zend_array, %struct._zend_array, ptr, i32, i32, ptr, ptr, ptr, ptr, ptr, ptr, i64, ptr, ptr, i32, i32, i64, i32, i32, i32, i8, i8, %struct.zend_atomic_bool_s, %struct.zend_atomic_bool_s, ptr, i64, ptr, ptr, %struct._zend_array, %struct._zend_array, i32, i8, %struct._zval_struct, %struct._zval_struct, %struct._zend_stack, %struct._zend_stack, %struct._zend_stack, ptr, i32, i32, i64, ptr, ptr, ptr, %struct._zend_objects_store, ptr, ptr, ptr, [3 x %struct._zend_op], ptr, i8, i8, i64, i32, i32, ptr, [16 x %struct._HashTableIterator], ptr, %union._zend_function, %struct._zend_op, %struct._zend_array, i64, %struct.zend_get_gc_buffer, ptr, ptr, ptr, i64, i8, i32, ptr, ptr, i64, %struct._zend_call_stack, i64, i64, [6 x ptr] }
%struct.zend_atomic_bool_s = type { i8 }
%struct._zval_struct = type { %union._zend_value, %union.anon, %union.anon.2 }
%union._zend_value = type { i64 }
%union.anon = type { i32 }
%union.anon.2 = type { i32 }
%struct._zend_stack = type { i32, i32, i32, ptr }
%struct._zend_objects_store = type { ptr, i32, i32, i32 }
%struct._HashTableIterator = type { ptr, i32, i32 }
%union._zend_function = type { %struct._zend_op_array }
%struct._zend_op_array = type { i8, [3 x i8], i32, ptr, ptr, ptr, i32, i32, ptr, ptr, ptr, ptr, i32, i32, i32, i32, ptr, ptr, ptr, ptr, ptr, i32, i32, ptr, ptr, ptr, i32, i32, i32, i32, ptr, ptr, [6 x ptr] }
%struct._zend_op = type { ptr, %union._znode_op, %union._znode_op, %union._znode_op, i32, i32, i8, i8, i8, i8 }
%union._znode_op = type { i32 }
%struct._zend_array = type { %struct._zend_refcounted_h, %union.anon.4, i32, %union.anon.6, i32, i32, i32, i32, i64, ptr }
%struct._zend_refcounted_h = type { i32, %union.anon.3 }
%union.anon.3 = type { i32 }
%union.anon.4 = type { i32 }
%union.anon.6 = type { ptr }
%struct.zend_get_gc_buffer = type { ptr, ptr, ptr }
%struct._zend_call_stack = type { ptr, i64 }
%struct._zend_object = type { %struct._zend_refcounted_h, i32, ptr, ptr, ptr, [1 x %struct._zval_struct] }
%struct._zend_object_handlers = type { i32, ptr, ptr, ptr, ptr, ptr, ptr, ptr, ptr, ptr, ptr, ptr, ptr, ptr, ptr, ptr, ptr, ptr, ptr, ptr, ptr, ptr, ptr, ptr, ptr }
%struct._zend_class_entry = type { i8, ptr, %union.anon.8, i32, i32, i32, i32, ptr, ptr, ptr, %struct._zend_array, %struct._zend_array, %struct._zend_array, ptr, ptr, ptr, ptr, ptr, ptr, ptr, ptr, ptr, ptr, ptr, ptr, ptr, ptr, ptr, ptr, ptr, ptr, ptr, %union.anon.9, ptr, ptr, ptr, ptr, i32, i32, %union.anon.10, ptr, ptr, ptr, ptr, i32, ptr, ptr, %union.anon.11 }
%union.anon.8 = type { ptr }
%union.anon.9 = type { ptr }
%union.anon.10 = type { ptr }
%union.anon.11 = type { %struct.anon.12 }
%struct.anon.12 = type { ptr, i32, i32 }

@executor_globals = external global %struct._zend_executor_globals, align 8

; Function Attrs: nounwind uwtable
define void @zend_objects_store_call_destructors(ptr noundef %0) #0 {
  %2 = alloca ptr, align 8
  %3 = alloca ptr, align 8
  %4 = alloca i32, align 4
  %5 = alloca ptr, align 8
  %6 = alloca i32, align 4
  %7 = alloca ptr, align 8
  store ptr %0, ptr %5, align 8
  %8 = load i8, ptr getelementptr inbounds (%struct._zend_executor_globals, ptr @executor_globals, i32 0, i32 56), align 1
  %9 = zext i8 %8 to i32
  %10 = or i32 %9, 2
  %11 = trunc i32 %10 to i8
  store i8 %11, ptr getelementptr inbounds (%struct._zend_executor_globals, ptr @executor_globals, i32 0, i32 56), align 1
  %12 = load ptr, ptr %5, align 8
  %13 = getelementptr inbounds %struct._zend_objects_store, ptr %12, i32 0, i32 1
  %14 = load i32, ptr %13, align 8
  %15 = icmp ugt i32 %14, 1
  br i1 %15, label %16, label %92

16:                                               ; preds = %1
  call void @zend_fiber_switch_block()
  store i32 1, ptr %6, align 4
  br label %17

17:                                               ; preds = %88, %16
  %18 = load i32, ptr %6, align 4
  %19 = load ptr, ptr %5, align 8
  %20 = getelementptr inbounds %struct._zend_objects_store, ptr %19, i32 0, i32 1
  %21 = load i32, ptr %20, align 8
  %22 = icmp ult i32 %18, %21
  br i1 %22, label %23, label %91

23:                                               ; preds = %17
  %24 = load ptr, ptr %5, align 8
  %25 = getelementptr inbounds %struct._zend_objects_store, ptr %24, i32 0, i32 0
  %26 = load ptr, ptr %25, align 8
  %27 = load i32, ptr %6, align 4
  %28 = zext i32 %27 to i64
  %29 = getelementptr inbounds ptr, ptr %26, i64 %28
  %30 = load ptr, ptr %29, align 8
  store ptr %30, ptr %7, align 8
  %31 = load ptr, ptr %7, align 8
  %32 = ptrtoint ptr %31 to i64
  %33 = and i64 %32, 1
  %34 = icmp ne i64 %33, 0
  br i1 %34, label %87, label %35

35:                                               ; preds = %23
  %36 = load ptr, ptr %7, align 8
  %37 = getelementptr inbounds %struct._zend_object, ptr %36, i32 0, i32 0
  %38 = getelementptr inbounds %struct._zend_refcounted_h, ptr %37, i32 0, i32 1
  %39 = load i32, ptr %38, align 4
  store i32 %39, ptr %4, align 4
  %40 = load i32, ptr %4, align 4
  %41 = and i32 %40, 1008
  %42 = and i32 %41, 256
  %43 = icmp ne i32 %42, 0
  br i1 %43, label %86, label %44

44:                                               ; preds = %35
  br label %45

45:                                               ; preds = %44
  %46 = load ptr, ptr %7, align 8
  %47 = getelementptr inbounds %struct._zend_object, ptr %46, i32 0, i32 0
  %48 = getelementptr inbounds %struct._zend_refcounted_h, ptr %47, i32 0, i32 1
  %49 = load i32, ptr %48, align 4
  %50 = or i32 %49, 256
  store i32 %50, ptr %48, align 4
  br label %51

51:                                               ; preds = %45
  %52 = load ptr, ptr %7, align 8
  %53 = getelementptr inbounds %struct._zend_object, ptr %52, i32 0, i32 3
  %54 = load ptr, ptr %53, align 8
  %55 = getelementptr inbounds %struct._zend_object_handlers, ptr %54, i32 0, i32 2
  %56 = load ptr, ptr %55, align 8
  %57 = icmp ne ptr %56, @zend_objects_destroy_object
  br i1 %57, label %65, label %58

58:                                               ; preds = %51
  %59 = load ptr, ptr %7, align 8
  %60 = getelementptr inbounds %struct._zend_object, ptr %59, i32 0, i32 2
  %61 = load ptr, ptr %60, align 8
  %62 = getelementptr inbounds %struct._zend_class_entry, ptr %61, i32 0, i32 17
  %63 = load ptr, ptr %62, align 8
  %64 = icmp ne ptr %63, null
  br i1 %64, label %65, label %85

65:                                               ; preds = %58, %51
  %66 = load ptr, ptr %7, align 8
  %67 = getelementptr inbounds %struct._zend_object, ptr %66, i32 0, i32 0
  store ptr %67, ptr %3, align 8
  %68 = load ptr, ptr %3, align 8
  %69 = load i32, ptr %68, align 4
  %70 = add i32 %69, 1
  store i32 %70, ptr %68, align 4
  %71 = load ptr, ptr %7, align 8
  %72 = getelementptr inbounds %struct._zend_object, ptr %71, i32 0, i32 3
  %73 = load ptr, ptr %72, align 8
  %74 = getelementptr inbounds %struct._zend_object_handlers, ptr %73, i32 0, i32 2
  %75 = load ptr, ptr %74, align 8
  %76 = load ptr, ptr %7, align 8
  call void %75(ptr noundef %76)
  %77 = load ptr, ptr %7, align 8
  %78 = getelementptr inbounds %struct._zend_object, ptr %77, i32 0, i32 0
  store ptr %78, ptr %2, align 8
  %79 = load ptr, ptr %2, align 8
  %80 = load i32, ptr %79, align 4
  %81 = icmp ugt i32 %80, 0
  call void @llvm.assume(i1 %81)
  %82 = load ptr, ptr %2, align 8
  %83 = load i32, ptr %82, align 4
  %84 = add i32 %83, -1
  store i32 %84, ptr %82, align 4
  br label %85

85:                                               ; preds = %65, %58
  br label %86

86:                                               ; preds = %85, %35
  br label %87

87:                                               ; preds = %86, %23
  br label %88

88:                                               ; preds = %87
  %89 = load i32, ptr %6, align 4
  %90 = add i32 %89, 1
  store i32 %90, ptr %6, align 4
  br label %17

91:                                               ; preds = %17
  call void @zend_fiber_switch_unblock()
  br label %92

92:                                               ; preds = %91, %1
  ret void
}