; Function Attrs: nounwind uwtable
define void @zend_objects_store_call_destructors(ptr nocapture noundef readonly %0) local_unnamed_addr #0 {
  %2 = load i8, ptr getelementptr inbounds (%struct._zend_executor_globals, ptr @executor_globals, i64 0, i32 56), align 1
  %3 = or i8 %2, 2
  store i8 %3, ptr getelementptr inbounds (%struct._zend_executor_globals, ptr @executor_globals, i64 0, i32 56), align 1
  %4 = getelementptr inbounds i8, ptr %0, i64 8
  %5 = load i32, ptr %4, align 8
  %6 = icmp ugt i32 %5, 1
  br i1 %6, label %7, label %41

7:                                                ; preds = %1
  tail call void @zend_fiber_switch_block() #7
  %8 = load i32, ptr %4, align 8
  %9 = icmp ugt i32 %8, 1
  br i1 %9, label %.lr.ph, label %._crit_edge

.lr.ph:                                           ; preds = %7, %37
  %indvars.iv = phi i64 [ %indvars.iv.next, %37 ], [ 1, %7 ]
  %10 = load ptr, ptr %0, align 8
  %11 = getelementptr inbounds ptr, ptr %10, i64 %indvars.iv
  %12 = load ptr, ptr %11, align 8
  %13 = ptrtoint ptr %12 to i64
  %14 = and i64 %13, 1
  %.not = icmp eq i64 %14, 0
  br i1 %.not, label %15, label %37

15:                                               ; preds = %.lr.ph
  %16 = getelementptr inbounds i8, ptr %12, i64 4
  %17 = load i32, ptr %16, align 4
  %18 = and i32 %17, 256
  %.not18 = icmp eq i32 %18, 0
  br i1 %.not18, label %19, label %37

19:                                               ; preds = %15
  %20 = or disjoint i32 %17, 256
  store i32 %20, ptr %16, align 4
  %21 = getelementptr inbounds i8, ptr %12, i64 24
  %22 = load ptr, ptr %21, align 8
  %23 = getelementptr inbounds i8, ptr %22, i64 16
  %24 = load ptr, ptr %23, align 8
  %.not19 = icmp eq ptr %24, @zend_objects_destroy_object
  br i1 %.not19, label %25, label %30

25:                                               ; preds = %19
  %26 = getelementptr inbounds i8, ptr %12, i64 16
  %27 = load ptr, ptr %26, align 8
  %28 = getelementptr inbounds i8, ptr %27, i64 264
  %29 = load ptr, ptr %28, align 8
  %.not20 = icmp eq ptr %29, null
  br i1 %.not20, label %37, label %30

30:                                               ; preds = %25, %19
  %31 = load i32, ptr %12, align 4
  %32 = add i32 %31, 1
  store i32 %32, ptr %12, align 4
  %33 = load ptr, ptr %23, align 8
  tail call void %33(ptr noundef nonnull %12) #7
  %34 = load i32, ptr %12, align 4
  %35 = icmp ne i32 %34, 0
  tail call void @llvm.assume(i1 %35)
  %36 = add i32 %34, -1
  store i32 %36, ptr %12, align 4
  br label %37

37:                                               ; preds = %.lr.ph, %25, %30, %15
  %indvars.iv.next = add nuw nsw i64 %indvars.iv, 1
  %38 = load i32, ptr %4, align 8
  %39 = zext i32 %38 to i64
  %40 = icmp ult i64 %indvars.iv.next, %39
  br i1 %40, label %.lr.ph, label %._crit_edge

._crit_edge:                                      ; preds = %37, %7
  tail call void @zend_fiber_switch_unblock() #7
  br label %41

41:                                               ; preds = %._crit_edge, %1
  ret void
}